; Function Attrs: nounwind uwtable
define range(i32 -2, 1) i32 @CVodeGetJacTime(ptr noundef %0, ptr noundef writeonly captures(none) %1) local_unnamed_addr #0 {
  %3 = icmp eq ptr %0, null
  br i1 %3, label %4, label %5

4:                                                ; preds = %2
  tail call void (ptr, i32, i32, ptr, ptr, ptr, ...) @cvProcessError(ptr noundef null, i32 noundef -1, i32 noundef 1930, ptr noundef nonnull @__func__.CVodeGetJacTime, ptr noundef nonnull @.str, ptr noundef nonnull @.str.1) #13
  br label %cvLs_AccessLMem.exit.thread

5:                                                ; preds = %2
  %6 = getelementptr inbounds nuw i8, ptr %0, i64 1040
  %7 = load ptr, ptr %6, align 8, !tbaa !69
  %8 = icmp eq ptr %7, null
  br i1 %8, label %9, label %cvLs_AccessLMem.exit

9:                                                ; preds = %5
  tail call void (ptr, i32, i32, ptr, ptr, ptr, ...) @cvProcessError(ptr noundef nonnull %0, i32 noundef -2, i32 noundef 1937, ptr noundef nonnull @__func__.CVodeGetJacTime, ptr noundef nonnull @.str, ptr noundef nonnull @.str.30) #13
  br label %cvLs_AccessLMem.exit.thread

cvLs_AccessLMem.exit:                             ; preds = %5
  %10 = getelementptr inbounds nuw i8, ptr %7, i64 208
  %11 = load double, ptr %10, align 8, !tbaa !84
  store double %11, ptr %1, align 8, !tbaa !87
  br label %cvLs_AccessLMem.exit.thread

cvLs_AccessLMem.exit.thread:                      ; preds = %9, %4, %cvLs_AccessLMem.exit
  %.0 = phi i32 [ 0, %cvLs_AccessLMem.exit ], [ -2, %9 ], [ -1, %4 ]
  ret i32 %.0
}